target datalayout = "e-m:e-p270:32:32-p271:32:32-p272:64:64-i64:64-i128:128-f80:128-n8:16:32:64-S128"
target triple = "x86_64-pc-linux-gnu"

; Function Attrs: mustprogress nounwind uwtable
define hidden void @_ZN12outputStream3putEc(ptr noundef nonnull align 8 dereferenceable(56) %0, i8 noundef signext %1) #1 align 2 {
  %3 = alloca ptr, align 8
  %4 = alloca i8, align 1
  %5 = alloca [2 x i8], align 1
  store ptr %0, ptr %3, align 8
  store i8 %1, ptr %4, align 1
  %6 = load ptr, ptr %3, align 8
  %7 = load i8, ptr %4, align 1
  store i8 %7, ptr %5, align 1
  %8 = getelementptr inbounds i8, ptr %5, i64 1
  store i8 0, ptr %8, align 1
  %9 = getelementptr inbounds [2 x i8], ptr %5, i64 0, i64 0
  %10 = load ptr, ptr %6, align 8
  %11 = getelementptr inbounds ptr, ptr %10, i64 1
  %12 = load ptr, ptr %11, align 8
  call void %12(ptr noundef nonnull align 8 dereferenceable(56) %6, ptr noundef %9, i64 noundef 1)
  ret void
}