; Function Attrs: mustprogress nounwind uwtable
define hidden void @_ZN12outputStream3putEc(ptr noundef nonnull align 8 dereferenceable(56) %0, i8 noundef signext %1) local_unnamed_addr #0 align 2 {
  %3 = alloca [2 x i8], align 1
  store i8 %1, ptr %3, align 1
  %4 = getelementptr inbounds i8, ptr %3, i64 1
  store i8 0, ptr %4, align 1
  %5 = load ptr, ptr %0, align 8
  %6 = getelementptr inbounds i8, ptr %5, i64 8
  %7 = load ptr, ptr %6, align 8
  call void %7(ptr noundef nonnull align 8 dereferenceable(56) %0, ptr noundef nonnull %3, i64 noundef 1) #21
  ret void
}